ARM GAS  C:\Users\fiona\AppData\Local\Temp\ccfBzkHG.s 			page 1


   1              		.syntax unified
   2              		.cpu cortex-m3
   3              		.fpu softvfp
   4              		.eabi_attribute 20, 1
   5              		.eabi_attribute 21, 1
   6              		.eabi_attribute 23, 3
   7              		.eabi_attribute 24, 1
   8              		.eabi_attribute 25, 1
   9              		.eabi_attribute 26, 1
  10              		.eabi_attribute 30, 1
  11              		.eabi_attribute 34, 1
  12              		.eabi_attribute 18, 4
  13              		.thumb
  14              		.syntax unified
  15              		.file	"can_manager.c"
  16              		.text
  17              	.Ltext0:
  18              		.cfi_sections	.debug_frame
  19              		.section	.text.can_msg_init,"ax",%progbits
  20              		.align	2
  21              		.global	can_msg_init
  22              		.thumb
  23              		.thumb_func
  24              		.type	can_msg_init, %function
  25              	can_msg_init:
  26              	.LFB65:
  27              		.file 1 "can_manager.c"
   1:can_manager.c **** #include "can_manager.h"
   2:can_manager.c **** #include <stdio.h>
   3:can_manager.c **** #include "data.h"
   4:can_manager.c **** 
   5:can_manager.c **** #define BMS_STATUS_ID		0x188
   6:can_manager.c **** #define BMS_CURRENT_ID		0x288
   7:can_manager.c **** #define BMS_VOLTAGE_ID		0x388
   8:can_manager.c **** #define BMS_TEMP_ID			0x488
   9:can_manager.c **** #define SOC_ID              0x369
  10:can_manager.c **** #define CURRENT_SENSOR      0x521
  11:can_manager.c **** 
  12:can_manager.c **** DataPacket BMS_STATUS;		//0x188
  13:can_manager.c **** DataPacket BMS_CURRENT;		//0x288
  14:can_manager.c **** DataPacket BMS_VOLTAGE;		//0x388
  15:can_manager.c **** DataPacket BMS_TEMP;		//0x488
  16:can_manager.c **** DataPacket SOC;             //0x369
  17:can_manager.c **** DataPacket CURR;            //0x521
  18:can_manager.c **** 
  19:can_manager.c **** extern uint32_t voltage;
  20:can_manager.c **** extern uint32_t amps;
  21:can_manager.c **** extern uint8_t charge;
  22:can_manager.c **** 
  23:can_manager.c **** // mimiced in dash so master board can send SOC back and forth
  24:can_manager.c **** // 240 values taken from data sheet
  25:can_manager.c **** // used to approximate state of charge
  26:can_manager.c **** int SOC_LUT[240] =  {
  27:can_manager.c ****     0, 5, 13, 22, 31, 39,
  28:can_manager.c ****     48, 57, 67, 76, 86, 
  29:can_manager.c ****     90, 106, 117, 127, 138,
  30:can_manager.c ****     150, 162, 174, 186, 199,
ARM GAS  C:\Users\fiona\AppData\Local\Temp\ccfBzkHG.s 			page 2


  31:can_manager.c ****     212, 226, 241, 256, 271, 
  32:can_manager.c ****     288, 205, 324, 345, 364,
  33:can_manager.c ****     386, 410, 436, 465, 497,
  34:can_manager.c ****     534, 577, 629, 695, 780,
  35:can_manager.c ****     881, 972, 1044, 1103, 1157,
  36:can_manager.c ****     1206, 1253, 1299, 1344, 1389, 
  37:can_manager.c ****     1434, 1479, 1527, 1576, 1628, 
  38:can_manager.c ****     1682, 1738, 1798, 1859, 1924,
  39:can_manager.c ****     1992, 2062, 2134, 2208, 2281, 
  40:can_manager.c ****     2424, 2492, 2557, 2620, 2681,
  41:can_manager.c ****     2743, 2804, 2868, 2903, 3003,
  42:can_manager.c ****     3078, 3161, 3253, 3354, 3467, 
  43:can_manager.c ****     3589, 3720, 3851, 3976, 4092, 
  44:can_manager.c ****     4200, 4303, 4404, 4504, 4603,
  45:can_manager.c ****     4700, 4792, 4878, 4958, 5032,
  46:can_manager.c ****     5101, 5166, 5228, 5289, 5347,
  47:can_manager.c ****     5405, 5462, 5518, 5573, 5628,
  48:can_manager.c ****     5680, 5731, 5780, 5826, 5869,
  49:can_manager.c ****     5911, 5951, 5988, 6024, 6059,
  50:can_manager.c ****     6092, 6124, 6156, 6187, 6217, 
  51:can_manager.c ****     6247, 6278, 6308, 6337, 6368,
  52:can_manager.c ****     6398, 6428, 6459, 6491, 6523,
  53:can_manager.c ****     6556, 6590, 6625, 6660, 6696,
  54:can_manager.c ****     6733, 6770, 6808, 6846, 6884,
  55:can_manager.c ****     6923, 6961, 7000, 7039, 7077,
  56:can_manager.c ****     7115, 7153, 7191, 7228, 7266, 
  57:can_manager.c ****     7303, 7340, 7376, 7413, 7449,
  58:can_manager.c ****     7484, 7520, 7555, 7590, 7625,
  59:can_manager.c ****     7659, 7694, 7728, 7762, 7796,
  60:can_manager.c ****     7830, 7864, 7898, 7932, 7966, 
  61:can_manager.c ****     8000, 8034, 8068, 8102, 8136,
  62:can_manager.c ****     8170, 8204, 8238, 8272, 8306,
  63:can_manager.c ****     8340, 8373, 8406, 8440, 8472,
  64:can_manager.c ****     8505, 8538, 8570, 8602, 8632,
  65:can_manager.c ****     8666, 8697, 8729, 8760, 8791,
  66:can_manager.c ****     8822, 8853, 8884, 8915, 8945, 
  67:can_manager.c ****     8976, 9006, 9036, 9067, 9097, 
  68:can_manager.c ****     9127, 9157, 9186, 9216, 9245,
  69:can_manager.c ****     9275, 9304, 9333, 9362, 9390,
  70:can_manager.c ****     9419, 9447, 9475, 9503, 9531,
  71:can_manager.c ****     9559, 9586, 9613, 9640, 9647, 
  72:can_manager.c ****     9693, 9720, 9746, 9772, 9797,
  73:can_manager.c ****     9823, 9848, 9873, 9898, 9923,
  74:can_manager.c ****     9947, 9971, 9995, 100000    
  75:can_manager.c **** };
  76:can_manager.c **** 
  77:can_manager.c **** void can_init() {
  78:can_manager.c **** 	CAN_GlobalIntEnable(); // CAN Initialization
  79:can_manager.c **** 	CAN_Init();
  80:can_manager.c **** 	CAN_Start();
  81:can_manager.c **** 	
  82:can_manager.c **** 	can_msg_init(&BMS_STATUS, BMS_STATUS_ID);
  83:can_manager.c **** 	can_msg_init(&BMS_CURRENT, BMS_CURRENT_ID); 
  84:can_manager.c **** 	can_msg_init(&BMS_VOLTAGE, BMS_VOLTAGE_ID);
  85:can_manager.c **** 	can_msg_init(&BMS_TEMP, BMS_TEMP_ID);
  86:can_manager.c **** }
  87:can_manager.c **** 
ARM GAS  C:\Users\fiona\AppData\Local\Temp\ccfBzkHG.s 			page 3


  88:can_manager.c **** //initalize CAN message variables with FF's everywhere
  89:can_manager.c **** void can_msg_init(DataPacket* can_msg, uint16_t id) {
  28              		.loc 1 89 0
  29              		.cfi_startproc
  30              		@ args = 0, pretend = 0, frame = 0
  31              		@ frame_needed = 0, uses_anonymous_args = 0
  32              		@ link register save eliminated.
  33              	.LVL0:
  90:can_manager.c **** 	uint8_t i;
  91:can_manager.c **** 	can_msg->id = id;
  34              		.loc 1 91 0
  35 0000 8180     		strh	r1, [r0, #4]	@ movhi
  92:can_manager.c **** 	can_msg->length = 8;
  36              		.loc 1 92 0
  37 0002 0823     		movs	r3, #8
  38 0004 8371     		strb	r3, [r0, #6]
  93:can_manager.c **** 	can_msg->millicounter = 0;
  39              		.loc 1 93 0
  40 0006 0023     		movs	r3, #0
  41 0008 0360     		str	r3, [r0]
  42              	.LVL1:
  94:can_manager.c **** 	for(i=0; i<can_msg->length; i++) {
  43              		.loc 1 94 0
  44 000a 04E0     		b	.L2
  45              	.LVL2:
  46              	.L3:
  95:can_manager.c **** 		can_msg->data[i] = 0xFF;
  47              		.loc 1 95 0 discriminator 3
  48 000c C218     		adds	r2, r0, r3
  49 000e FF21     		movs	r1, #255
  50 0010 D171     		strb	r1, [r2, #7]
  94:can_manager.c **** 	for(i=0; i<can_msg->length; i++) {
  51              		.loc 1 94 0 discriminator 3
  52 0012 0133     		adds	r3, r3, #1
  53              	.LVL3:
  54 0014 DBB2     		uxtb	r3, r3
  55              	.LVL4:
  56              	.L2:
  94:can_manager.c **** 	for(i=0; i<can_msg->length; i++) {
  57              		.loc 1 94 0 is_stmt 0 discriminator 1
  58 0016 072B     		cmp	r3, #7
  59 0018 F8D9     		bls	.L3
  96:can_manager.c **** 	}
  97:can_manager.c **** 	
  98:can_manager.c **** } //can_msg_init()
  60              		.loc 1 98 0 is_stmt 1
  61 001a 7047     		bx	lr
  62              		.cfi_endproc
  63              	.LFE65:
  64              		.size	can_msg_init, .-can_msg_init
  65              		.section	.text.can_init,"ax",%progbits
  66              		.align	2
  67              		.global	can_init
  68              		.thumb
  69              		.thumb_func
  70              		.type	can_init, %function
  71              	can_init:
ARM GAS  C:\Users\fiona\AppData\Local\Temp\ccfBzkHG.s 			page 4


  72              	.LFB64:
  77:can_manager.c **** 	CAN_GlobalIntEnable(); // CAN Initialization
  73              		.loc 1 77 0
  74              		.cfi_startproc
  75              		@ args = 0, pretend = 0, frame = 0
  76              		@ frame_needed = 0, uses_anonymous_args = 0
  77 0000 08B5     		push	{r3, lr}
  78              		.cfi_def_cfa_offset 8
  79              		.cfi_offset 3, -8
  80              		.cfi_offset 14, -4
  78:can_manager.c **** 	CAN_Init();
  81              		.loc 1 78 0
  82 0002 FFF7FEFF 		bl	CAN_GlobalIntEnable
  83              	.LVL5:
  79:can_manager.c **** 	CAN_Start();
  84              		.loc 1 79 0
  85 0006 FFF7FEFF 		bl	CAN_Init
  86              	.LVL6:
  80:can_manager.c **** 	
  87              		.loc 1 80 0
  88 000a FFF7FEFF 		bl	CAN_Start
  89              	.LVL7:
  82:can_manager.c **** 	can_msg_init(&BMS_CURRENT, BMS_CURRENT_ID); 
  90              		.loc 1 82 0
  91 000e 4FF4C471 		mov	r1, #392
  92 0012 0948     		ldr	r0, .L6
  93 0014 FFF7FEFF 		bl	can_msg_init
  94              	.LVL8:
  83:can_manager.c **** 	can_msg_init(&BMS_VOLTAGE, BMS_VOLTAGE_ID);
  95              		.loc 1 83 0
  96 0018 4FF42271 		mov	r1, #648
  97 001c 0748     		ldr	r0, .L6+4
  98 001e FFF7FEFF 		bl	can_msg_init
  99              	.LVL9:
  84:can_manager.c **** 	can_msg_init(&BMS_TEMP, BMS_TEMP_ID);
 100              		.loc 1 84 0
 101 0022 4FF46271 		mov	r1, #904
 102 0026 0648     		ldr	r0, .L6+8
 103 0028 FFF7FEFF 		bl	can_msg_init
 104              	.LVL10:
  85:can_manager.c **** }
 105              		.loc 1 85 0
 106 002c 4FF49161 		mov	r1, #1160
 107 0030 0448     		ldr	r0, .L6+12
 108 0032 FFF7FEFF 		bl	can_msg_init
 109              	.LVL11:
 110 0036 08BD     		pop	{r3, pc}
 111              	.L7:
 112              		.align	2
 113              	.L6:
 114 0038 00000000 		.word	BMS_STATUS
 115 003c 00000000 		.word	BMS_CURRENT
 116 0040 00000000 		.word	BMS_VOLTAGE
 117 0044 00000000 		.word	BMS_TEMP
 118              		.cfi_endproc
 119              	.LFE64:
 120              		.size	can_init, .-can_init
ARM GAS  C:\Users\fiona\AppData\Local\Temp\ccfBzkHG.s 			page 5


 121              		.section	.text.can_compare,"ax",%progbits
 122              		.align	2
 123              		.global	can_compare
 124              		.thumb
 125              		.thumb_func
 126              		.type	can_compare, %function
 127              	can_compare:
 128              	.LFB67:
  99:can_manager.c **** 
 100:can_manager.c **** 
 101:can_manager.c **** /*  recieves can message from bus can compares it with is respective id*/
 102:can_manager.c **** int can_process(DataPacket* can_msg){
 103:can_manager.c **** 	int status = 0;		//returns 1 if message is updated
 104:can_manager.c ****     switch (can_msg->id) {
 105:can_manager.c **** 	case BMS_STATUS_ID:
 106:can_manager.c **** 		status = can_compare(&BMS_STATUS, can_msg);
 107:can_manager.c **** 		if(status)
 108:can_manager.c ****             can_process_BMS_STATUS();
 109:can_manager.c **** 		break;
 110:can_manager.c **** 	case BMS_CURRENT_ID:	//0x288
 111:can_manager.c **** 		status = can_compare(&BMS_CURRENT, can_msg);
 112:can_manager.c **** 		if(status)
 113:can_manager.c **** 			can_process_BMS_CURR();
 114:can_manager.c **** 		break;
 115:can_manager.c **** 	case BMS_VOLTAGE_ID:	//0x388
 116:can_manager.c **** 		status = can_compare(&BMS_VOLTAGE, can_msg);
 117:can_manager.c **** 		if(status)
 118:can_manager.c **** 			can_process_BMS_VOLT();
 119:can_manager.c **** 		break;
 120:can_manager.c **** 	case BMS_TEMP_ID:		//0x488
 121:can_manager.c **** 		status = can_compare(&BMS_TEMP, can_msg);
 122:can_manager.c **** 		if(status)
 123:can_manager.c **** 			can_process_BMS_TEMP();
 124:can_manager.c **** 		break;
 125:can_manager.c ****     case SOC_ID:            //0x369
 126:can_manager.c ****         if(can_compare(&SOC, can_msg))
 127:can_manager.c ****             can_process_SOC();
 128:can_manager.c ****         break;
 129:can_manager.c ****     case CURRENT_SENSOR:
 130:can_manager.c ****         if(can_compare(&CURR, can_msg))
 131:can_manager.c ****             can_process_current();
 132:can_manager.c ****             
 133:can_manager.c ****     default:
 134:can_manager.c **** 		status = 0;
 135:can_manager.c ****         break;
 136:can_manager.c ****     }
 137:can_manager.c **** 	return status;
 138:can_manager.c **** }
 139:can_manager.c **** 
 140:can_manager.c **** /*	compares received can message with the latest can message of the same id.
 141:can_manager.c **** 	if it is different, it will add update that DataPacket variable	
 142:can_manager.c **** 	returns: 1 if message was updated, 0 if message same as before */
 143:can_manager.c **** int can_compare(DataPacket* prev_msg, DataPacket* new_msg) {
 129              		.loc 1 143 0
 130              		.cfi_startproc
 131              		@ args = 0, pretend = 0, frame = 16
 132              		@ frame_needed = 0, uses_anonymous_args = 0
ARM GAS  C:\Users\fiona\AppData\Local\Temp\ccfBzkHG.s 			page 6


 133              	.LVL12:
 134 0000 F0B5     		push	{r4, r5, r6, r7, lr}
 135              		.cfi_def_cfa_offset 20
 136              		.cfi_offset 4, -20
 137              		.cfi_offset 5, -16
 138              		.cfi_offset 6, -12
 139              		.cfi_offset 7, -8
 140              		.cfi_offset 14, -4
 141 0002 85B0     		sub	sp, sp, #20
 142              		.cfi_def_cfa_offset 40
 143              	.LVL13:
 144:can_manager.c **** 	uint8_t i, j;
 145:can_manager.c **** 	uint8_t offset = 0;
 146:can_manager.c **** 	DataPacket temp;
 147:can_manager.c ****  
 148:can_manager.c **** 	temp.id = new_msg->id;
 144              		.loc 1 148 0
 145 0004 8D88     		ldrh	r5, [r1, #4]
 149:can_manager.c **** 	temp.length = new_msg->length;
 146              		.loc 1 149 0
 147 0006 8C79     		ldrb	r4, [r1, #6]	@ zero_extendqisi2
 148              	.LVL14:
 150:can_manager.c **** 	temp.millicounter = new_msg->millicounter;
 151:can_manager.c **** 	for(i=0; i<temp.length; i++) {
 149              		.loc 1 151 0
 150 0008 0023     		movs	r3, #0
 151 000a 07E0     		b	.L9
 152              	.LVL15:
 153              	.L10:
 152:can_manager.c **** 		temp.data[i] = new_msg->data[i];
 154              		.loc 1 152 0 discriminator 3
 155 000c CA18     		adds	r2, r1, r3
 156 000e D679     		ldrb	r6, [r2, #7]	@ zero_extendqisi2
 157 0010 04AA     		add	r2, sp, #16
 158 0012 1A44     		add	r2, r2, r3
 159 0014 02F8096C 		strb	r6, [r2, #-9]
 151:can_manager.c **** 		temp.data[i] = new_msg->data[i];
 160              		.loc 1 151 0 discriminator 3
 161 0018 0133     		adds	r3, r3, #1
 162              	.LVL16:
 163 001a DBB2     		uxtb	r3, r3
 164              	.LVL17:
 165              	.L9:
 151:can_manager.c **** 		temp.data[i] = new_msg->data[i];
 166              		.loc 1 151 0 is_stmt 0 discriminator 1
 167 001c A342     		cmp	r3, r4
 168 001e F5D3     		bcc	.L10
 169 0020 0022     		movs	r2, #0
 170 0022 09E0     		b	.L11
 171              	.LVL18:
 172              	.L12:
 153:can_manager.c **** 	}
 154:can_manager.c **** 	
 155:can_manager.c **** 	//bytes received in little endian so have to reverse to big endian 32bits
 156:can_manager.c **** 	for(i=0; i<(new_msg->length/2); i++) {		//swap bytes 0-3
 157:can_manager.c **** 		new_msg->data[i+offset] = temp.data[offset + temp.length/2 - i - 1];
 173              		.loc 1 157 0 is_stmt 1 discriminator 3
ARM GAS  C:\Users\fiona\AppData\Local\Temp\ccfBzkHG.s 			page 7


 174 0024 9B1A     		subs	r3, r3, r2
 175 0026 013B     		subs	r3, r3, #1
 176 0028 04AE     		add	r6, sp, #16
 177 002a 3344     		add	r3, r3, r6
 178 002c 13F8096C 		ldrb	r6, [r3, #-9]	@ zero_extendqisi2
 179 0030 8B18     		adds	r3, r1, r2
 180 0032 DE71     		strb	r6, [r3, #7]
 156:can_manager.c **** 		new_msg->data[i+offset] = temp.data[offset + temp.length/2 - i - 1];
 181              		.loc 1 156 0 discriminator 3
 182 0034 0132     		adds	r2, r2, #1
 183              	.LVL19:
 184 0036 D2B2     		uxtb	r2, r2
 185              	.LVL20:
 186              	.L11:
 156:can_manager.c **** 		new_msg->data[i+offset] = temp.data[offset + temp.length/2 - i - 1];
 187              		.loc 1 156 0 is_stmt 0 discriminator 1
 188 0038 6308     		lsrs	r3, r4, #1
 189 003a 9A42     		cmp	r2, r3
 190 003c F2D3     		bcc	.L12
 191 003e 0026     		movs	r6, #0
 192 0040 0DE0     		b	.L13
 193              	.LVL21:
 194              	.L14:
 158:can_manager.c **** 	}//for
 159:can_manager.c **** 	offset = 4;
 160:can_manager.c **** 	for(i=0; i<(new_msg->length/2); i++) {		//swap bytes 4-7
 161:can_manager.c **** 		new_msg->data[i+offset] = temp.data[offset + temp.length/2 - i - 1];
 195              		.loc 1 161 0 is_stmt 1 discriminator 3
 196 0042 371D     		adds	r7, r6, #4
 197 0044 1A1D     		adds	r2, r3, #4
 198 0046 921B     		subs	r2, r2, r6
 199 0048 013A     		subs	r2, r2, #1
 200 004a 0DF1100E 		add	lr, sp, #16
 201 004e 7244     		add	r2, r2, lr
 202 0050 12F809EC 		ldrb	lr, [r2, #-9]	@ zero_extendqisi2
 203 0054 CA19     		adds	r2, r1, r7
 204 0056 82F807E0 		strb	lr, [r2, #7]
 160:can_manager.c **** 		new_msg->data[i+offset] = temp.data[offset + temp.length/2 - i - 1];
 205              		.loc 1 160 0 discriminator 3
 206 005a 0136     		adds	r6, r6, #1
 207              	.LVL22:
 208 005c F6B2     		uxtb	r6, r6
 209              	.LVL23:
 210              	.L13:
 160:can_manager.c **** 		new_msg->data[i+offset] = temp.data[offset + temp.length/2 - i - 1];
 211              		.loc 1 160 0 is_stmt 0 discriminator 1
 212 005e 9E42     		cmp	r6, r3
 213 0060 EFD3     		bcc	.L14
 214 0062 0023     		movs	r3, #0
 215 0064 19E0     		b	.L15
 216              	.LVL24:
 217              	.L20:
 162:can_manager.c **** 	}//for
 163:can_manager.c **** 	
 164:can_manager.c **** 	for(i=0; i<new_msg->length; i++) {					//compare all 8 data bytes
 165:can_manager.c **** 		if(prev_msg->data[i] != new_msg->data[i]) {		//update it if data[] has changed
 218              		.loc 1 165 0 is_stmt 1
ARM GAS  C:\Users\fiona\AppData\Local\Temp\ccfBzkHG.s 			page 8


 219 0066 C218     		adds	r2, r0, r3
 220 0068 D679     		ldrb	r6, [r2, #7]	@ zero_extendqisi2
 221 006a CA18     		adds	r2, r1, r3
 222 006c D279     		ldrb	r2, [r2, #7]	@ zero_extendqisi2
 223 006e 9642     		cmp	r6, r2
 224 0070 11D0     		beq	.L16
 166:can_manager.c **** 			prev_msg->id = new_msg->id;
 225              		.loc 1 166 0
 226 0072 8580     		strh	r5, [r0, #4]	@ movhi
 167:can_manager.c **** 			prev_msg->length = new_msg->length;
 227              		.loc 1 167 0
 228 0074 8B79     		ldrb	r3, [r1, #6]	@ zero_extendqisi2
 229              	.LVL25:
 230 0076 8371     		strb	r3, [r0, #6]
 168:can_manager.c **** 			prev_msg->millicounter = new_msg->millicounter;	
 231              		.loc 1 168 0
 232 0078 0B68     		ldr	r3, [r1]
 233 007a 0360     		str	r3, [r0]
 234              	.LVL26:
 169:can_manager.c **** 			for(j=0; j<new_msg->length; j++) {
 235              		.loc 1 169 0
 236 007c 0023     		movs	r3, #0
 237 007e 05E0     		b	.L17
 238              	.LVL27:
 239              	.L18:
 170:can_manager.c **** 				prev_msg->data[j] = new_msg->data[j];
 240              		.loc 1 170 0 discriminator 3
 241 0080 CA18     		adds	r2, r1, r3
 242 0082 D479     		ldrb	r4, [r2, #7]	@ zero_extendqisi2
 243 0084 C218     		adds	r2, r0, r3
 244 0086 D471     		strb	r4, [r2, #7]
 169:can_manager.c **** 			for(j=0; j<new_msg->length; j++) {
 245              		.loc 1 169 0 discriminator 3
 246 0088 0133     		adds	r3, r3, #1
 247              	.LVL28:
 248 008a DBB2     		uxtb	r3, r3
 249              	.LVL29:
 250              	.L17:
 169:can_manager.c **** 			for(j=0; j<new_msg->length; j++) {
 251              		.loc 1 169 0 is_stmt 0 discriminator 1
 252 008c 8A79     		ldrb	r2, [r1, #6]	@ zero_extendqisi2
 253 008e 9342     		cmp	r3, r2
 254 0090 F6D3     		bcc	.L18
 171:can_manager.c **** 			}
 172:can_manager.c **** 			
 173:can_manager.c **** 			return 1;
 255              		.loc 1 173 0 is_stmt 1
 256 0092 0120     		movs	r0, #1
 257              	.LVL30:
 258 0094 04E0     		b	.L19
 259              	.LVL31:
 260              	.L16:
 164:can_manager.c **** 		if(prev_msg->data[i] != new_msg->data[i]) {		//update it if data[] has changed
 261              		.loc 1 164 0 discriminator 2
 262 0096 0133     		adds	r3, r3, #1
 263              	.LVL32:
 264 0098 DBB2     		uxtb	r3, r3
ARM GAS  C:\Users\fiona\AppData\Local\Temp\ccfBzkHG.s 			page 9


 265              	.LVL33:
 266              	.L15:
 164:can_manager.c **** 		if(prev_msg->data[i] != new_msg->data[i]) {		//update it if data[] has changed
 267              		.loc 1 164 0 is_stmt 0 discriminator 1
 268 009a A342     		cmp	r3, r4
 269 009c E3D3     		bcc	.L20
 174:can_manager.c **** 		}//if
 175:can_manager.c **** 	}//for
 176:can_manager.c **** 	return 0;
 270              		.loc 1 176 0 is_stmt 1
 271 009e 0020     		movs	r0, #0
 272              	.LVL34:
 273              	.L19:
 177:can_manager.c **** }
 274              		.loc 1 177 0
 275 00a0 05B0     		add	sp, sp, #20
 276              		.cfi_def_cfa_offset 20
 277              		@ sp needed
 278 00a2 F0BD     		pop	{r4, r5, r6, r7, pc}
 279              		.cfi_endproc
 280              	.LFE67:
 281              		.size	can_compare, .-can_compare
 282              		.section	.text.can_process_BMS_STATUS,"ax",%progbits
 283              		.align	2
 284              		.global	can_process_BMS_STATUS
 285              		.thumb
 286              		.thumb_func
 287              		.type	can_process_BMS_STATUS, %function
 288              	can_process_BMS_STATUS:
 289              	.LFB68:
 178:can_manager.c **** 
 179:can_manager.c **** 
 180:can_manager.c **** void can_process_BMS_STATUS() {
 290              		.loc 1 180 0
 291              		.cfi_startproc
 292              		@ args = 0, pretend = 0, frame = 8
 293              		@ frame_needed = 0, uses_anonymous_args = 0
 294 0000 00B5     		push	{lr}
 295              		.cfi_def_cfa_offset 4
 296              		.cfi_offset 14, -4
 297 0002 83B0     		sub	sp, sp, #12
 298              		.cfi_def_cfa_offset 16
 181:can_manager.c ****     /*
 182:can_manager.c **** 	uint32_t bms_stat1;
 183:can_manager.c **** 	uint32_t bms_stat2;
 184:can_manager.c **** 	char8 bms_stat1_str[16]; 
 185:can_manager.c **** 	char8 bms_stat2_str[16];
 186:can_manager.c **** 	sprintf(bms_stat1_str, "%02X%02X", can_msg->data[3], can_msg->data[2], can_msg->data[1], can_msg->
 187:can_manager.c **** 	sprintf(bms_stat2_str, "%02X %02X %02X %02X", can_msg->data[7], can_msg->data[6], can_msg->data[5]
 188:can_manager.c **** 	LCD_Position(0,0);
 189:can_manager.c **** 	LCD_PrintString(bms_stat1_str);
 190:can_manager.c **** 	LCD_Position(1,0);
 191:can_manager.c **** 	LCD_PrintString(bms_stat2_str);
 192:can_manager.c ****     */
 193:can_manager.c ****     
 194:can_manager.c **** 	char8 bms_error_str[4];
 195:can_manager.c **** 	sprintf(bms_error_str, "%02X%02X", BMS_STATUS.data[2], BMS_STATUS.data[3]);
ARM GAS  C:\Users\fiona\AppData\Local\Temp\ccfBzkHG.s 			page 10


 299              		.loc 1 195 0
 300 0004 084A     		ldr	r2, .L24
 301 0006 937A     		ldrb	r3, [r2, #10]	@ zero_extendqisi2
 302 0008 527A     		ldrb	r2, [r2, #9]	@ zero_extendqisi2
 303 000a 0849     		ldr	r1, .L24+4
 304 000c 01A8     		add	r0, sp, #4
 305 000e FFF7FEFF 		bl	sprintf
 306              	.LVL35:
 196:can_manager.c **** 	LCD_Position(0,12);
 307              		.loc 1 196 0
 308 0012 0C21     		movs	r1, #12
 309 0014 0020     		movs	r0, #0
 310 0016 FFF7FEFF 		bl	LCD_Position
 311              	.LVL36:
 197:can_manager.c **** 	LCD_PrintString(bms_error_str);
 312              		.loc 1 197 0
 313 001a 01A8     		add	r0, sp, #4
 314 001c FFF7FEFF 		bl	LCD_PrintString
 315              	.LVL37:
 198:can_manager.c **** }
 316              		.loc 1 198 0
 317 0020 03B0     		add	sp, sp, #12
 318              		.cfi_def_cfa_offset 4
 319              		@ sp needed
 320 0022 5DF804FB 		ldr	pc, [sp], #4
 321              	.L25:
 322 0026 00BF     		.align	2
 323              	.L24:
 324 0028 00000000 		.word	BMS_STATUS
 325 002c 00000000 		.word	.LC0
 326              		.cfi_endproc
 327              	.LFE68:
 328              		.size	can_process_BMS_STATUS, .-can_process_BMS_STATUS
 329              		.section	.text.can_process_BMS_CURR,"ax",%progbits
 330              		.align	2
 331              		.global	can_process_BMS_CURR
 332              		.thumb
 333              		.thumb_func
 334              		.type	can_process_BMS_CURR, %function
 335              	can_process_BMS_CURR:
 336              	.LFB69:
 199:can_manager.c **** 	
 200:can_manager.c **** //formats and gets lcd pos
 201:can_manager.c **** void can_process_BMS_CURR() {
 337              		.loc 1 201 0
 338              		.cfi_startproc
 339              		@ args = 0, pretend = 0, frame = 8
 340              		@ frame_needed = 0, uses_anonymous_args = 0
 341 0000 00B5     		push	{lr}
 342              		.cfi_def_cfa_offset 4
 343              		.cfi_offset 14, -4
 344 0002 83B0     		sub	sp, sp, #12
 345              		.cfi_def_cfa_offset 16
 202:can_manager.c **** 	uint16_t current;
 203:can_manager.c **** 	char8 curr_string[6]; 
 204:can_manager.c **** 	
 205:can_manager.c **** 	uint16_t byte2 = BMS_CURRENT.data[1] << 8;
ARM GAS  C:\Users\fiona\AppData\Local\Temp\ccfBzkHG.s 			page 11


 346              		.loc 1 205 0
 347 0004 0D4A     		ldr	r2, .L28
 348 0006 117A     		ldrb	r1, [r2, #8]	@ zero_extendqisi2
 349              	.LVL38:
 206:can_manager.c **** 	uint16_t byte1 = BMS_CURRENT.data[2];
 350              		.loc 1 206 0
 351 0008 537A     		ldrb	r3, [r2, #9]	@ zero_extendqisi2
 352              	.LVL39:
 207:can_manager.c **** 	current = byte2 | byte1;
 353              		.loc 1 207 0
 354 000a 43EA0123 		orr	r3, r3, r1, lsl #8
 355              	.LVL40:
 208:can_manager.c **** 	
 209:can_manager.c ****     
 210:can_manager.c **** 	//current = 0x10; 
 211:can_manager.c ****     //first bit of high byte: 0 = charging, 1 = discharging
 212:can_manager.c **** 	sprintf(curr_string, "%03d.%01dA", (int)(current/10), (int)(current%10)); 
 356              		.loc 1 212 0
 357 000e 0C4A     		ldr	r2, .L28+4
 358              	.LVL41:
 359 0010 A2FB0312 		umull	r1, r2, r2, r3
 360              	.LVL42:
 361 0014 D208     		lsrs	r2, r2, #3
 362 0016 02EB8200 		add	r0, r2, r2, lsl #2
 363 001a 4100     		lsls	r1, r0, #1
 364 001c 5B1A     		subs	r3, r3, r1
 365              	.LVL43:
 366 001e 9BB2     		uxth	r3, r3
 367 0020 0849     		ldr	r1, .L28+8
 368 0022 6846     		mov	r0, sp
 369 0024 FFF7FEFF 		bl	sprintf
 370              	.LVL44:
 213:can_manager.c ****     //sprintf(curr_string, "%02X %02X", BMS_CURRENT.data[1], BMS_CURRENT.data[2]); 
 214:can_manager.c **** 	LCD_Position(1, 3);
 371              		.loc 1 214 0
 372 0028 0321     		movs	r1, #3
 373 002a 0120     		movs	r0, #1
 374 002c FFF7FEFF 		bl	LCD_Position
 375              	.LVL45:
 215:can_manager.c **** 	LCD_PrintString(curr_string);
 376              		.loc 1 215 0
 377 0030 6846     		mov	r0, sp
 378 0032 FFF7FEFF 		bl	LCD_PrintString
 379              	.LVL46:
 216:can_manager.c ****     
 217:can_manager.c ****     
 218:can_manager.c ****     /*
 219:can_manager.c ****     char8 bms_curr1_str[16];
 220:can_manager.c ****     char8 bms_curr2_str[16];
 221:can_manager.c ****     sprintf(bms_curr1_str, "%02X %02X %02X %02X", BMS_CURRENT.data[0], BMS_CURRENT.data[1], BMS_CUR
 222:can_manager.c ****     sprintf(bms_curr2_str, "%02X %02X %02X %02X", BMS_CURRENT.data[4], BMS_CURRENT.data[5], BMS_CUR
 223:can_manager.c ****     LCD_Position(0,0);
 224:can_manager.c ****     LCD_PrintString(bms_curr1_str);
 225:can_manager.c ****     LCD_Position(1,0);
 226:can_manager.c ****     LCD_PrintString(bms_curr2_str);
 227:can_manager.c ****     */
 228:can_manager.c **** }
ARM GAS  C:\Users\fiona\AppData\Local\Temp\ccfBzkHG.s 			page 12


 380              		.loc 1 228 0
 381 0036 03B0     		add	sp, sp, #12
 382              		.cfi_def_cfa_offset 4
 383              		@ sp needed
 384 0038 5DF804FB 		ldr	pc, [sp], #4
 385              	.L29:
 386              		.align	2
 387              	.L28:
 388 003c 00000000 		.word	BMS_CURRENT
 389 0040 CDCCCCCC 		.word	-858993459
 390 0044 0C000000 		.word	.LC1
 391              		.cfi_endproc
 392              	.LFE69:
 393              		.size	can_process_BMS_CURR, .-can_process_BMS_CURR
 394              		.section	.text.can_process_BMS_VOLT,"ax",%progbits
 395              		.align	2
 396              		.global	can_process_BMS_VOLT
 397              		.thumb
 398              		.thumb_func
 399              		.type	can_process_BMS_VOLT, %function
 400              	can_process_BMS_VOLT:
 401              	.LFB70:
 229:can_manager.c **** 
 230:can_manager.c **** //gets pack voltage
 231:can_manager.c **** void can_process_BMS_VOLT() {
 402              		.loc 1 231 0
 403              		.cfi_startproc
 404              		@ args = 0, pretend = 0, frame = 16
 405              		@ frame_needed = 0, uses_anonymous_args = 0
 406 0000 30B5     		push	{r4, r5, lr}
 407              		.cfi_def_cfa_offset 12
 408              		.cfi_offset 4, -12
 409              		.cfi_offset 5, -8
 410              		.cfi_offset 14, -4
 411 0002 85B0     		sub	sp, sp, #20
 412              		.cfi_def_cfa_offset 32
 232:can_manager.c **** 	char8 volt_string[6];
 233:can_manager.c ****     char8 soc_string[6];
 234:can_manager.c **** 	
 235:can_manager.c **** 	uint32_t byte4 = BMS_VOLTAGE.data[4] << 24;
 413              		.loc 1 235 0
 414 0004 1E49     		ldr	r1, .L32
 415 0006 C87A     		ldrb	r0, [r1, #11]	@ zero_extendqisi2
 416              	.LVL47:
 236:can_manager.c **** 	uint32_t byte3 = BMS_VOLTAGE.data[5] << 16;
 417              		.loc 1 236 0
 418 0008 0A7B     		ldrb	r2, [r1, #12]	@ zero_extendqisi2
 419 000a 1204     		lsls	r2, r2, #16
 420              	.LVL48:
 237:can_manager.c **** 	uint32_t byte2 = BMS_VOLTAGE.data[6] << 8;
 421              		.loc 1 237 0
 422 000c 4B7B     		ldrb	r3, [r1, #13]	@ zero_extendqisi2
 423              	.LVL49:
 238:can_manager.c **** 	uint32_t byte1 = BMS_VOLTAGE.data[7];
 424              		.loc 1 238 0
 425 000e 897B     		ldrb	r1, [r1, #14]	@ zero_extendqisi2
 426              	.LVL50:
ARM GAS  C:\Users\fiona\AppData\Local\Temp\ccfBzkHG.s 			page 13


 239:can_manager.c **** 	voltage = byte4 | byte3 | byte2 | byte1;
 427              		.loc 1 239 0
 428 0010 42EA0062 		orr	r2, r2, r0, lsl #24
 429              	.LVL51:
 430 0014 42EA0323 		orr	r3, r2, r3, lsl #8
 431              	.LVL52:
 432 0018 0B43     		orrs	r3, r3, r1
 433 001a 1A4D     		ldr	r5, .L32+4
 434 001c 2B60     		str	r3, [r5]
 240:can_manager.c **** 	
 241:can_manager.c **** 	sprintf(volt_string, "%03d.%01dV", (int)(voltage/1000), (int)(voltage/100%10));
 435              		.loc 1 241 0
 436 001e 1A4A     		ldr	r2, .L32+8
 437 0020 A2FB0312 		umull	r1, r2, r2, r3
 438              	.LVL53:
 439 0024 194C     		ldr	r4, .L32+12
 440 0026 A4FB0313 		umull	r1, r3, r4, r3
 441 002a 5B09     		lsrs	r3, r3, #5
 442 002c 1849     		ldr	r1, .L32+16
 443 002e A1FB0301 		umull	r0, r1, r1, r3
 444              	.LVL54:
 445 0032 C908     		lsrs	r1, r1, #3
 446 0034 01EB8101 		add	r1, r1, r1, lsl #2
 447 0038 4800     		lsls	r0, r1, #1
 448 003a 1B1A     		subs	r3, r3, r0
 449 003c 9209     		lsrs	r2, r2, #6
 450 003e 1549     		ldr	r1, .L32+20
 451 0040 02A8     		add	r0, sp, #8
 452 0042 FFF7FEFF 		bl	sprintf
 453              	.LVL55:
 242:can_manager.c **** 	LCD_Position(0, 3);
 454              		.loc 1 242 0
 455 0046 0321     		movs	r1, #3
 456 0048 0020     		movs	r0, #0
 457 004a FFF7FEFF 		bl	LCD_Position
 458              	.LVL56:
 243:can_manager.c **** 	LCD_PrintString(volt_string);
 459              		.loc 1 243 0
 460 004e 02A8     		add	r0, sp, #8
 461 0050 FFF7FEFF 		bl	LCD_PrintString
 462              	.LVL57:
 244:can_manager.c ****     
 245:can_manager.c ****     
 246:can_manager.c ****     uint8_t v_charge = SOC_LUT[(voltage - 93400) / 100] / 100;
 463              		.loc 1 246 0
 464 0054 2B68     		ldr	r3, [r5]
 465 0056 A3F5B633 		sub	r3, r3, #93184
 466 005a D83B     		subs	r3, r3, #216
 467 005c A4FB0323 		umull	r2, r3, r4, r3
 468 0060 5B09     		lsrs	r3, r3, #5
 469 0062 0D4A     		ldr	r2, .L32+24
 470 0064 52F82330 		ldr	r3, [r2, r3, lsl #2]
 471 0068 84FB0312 		smull	r1, r2, r4, r3
 472 006c DB17     		asrs	r3, r3, #31
 473 006e C3EB6212 		rsb	r2, r3, r2, asr #5
 474              	.LVL58:
 247:can_manager.c ****     sprintf(soc_string, "%02d", v_charge);
ARM GAS  C:\Users\fiona\AppData\Local\Temp\ccfBzkHG.s 			page 14


 475              		.loc 1 247 0
 476 0072 D2B2     		uxtb	r2, r2
 477 0074 0949     		ldr	r1, .L32+28
 478 0076 6846     		mov	r0, sp
 479 0078 FFF7FEFF 		bl	sprintf
 480              	.LVL59:
 248:can_manager.c ****     
 249:can_manager.c **** }
 481              		.loc 1 249 0
 482 007c 05B0     		add	sp, sp, #20
 483              		.cfi_def_cfa_offset 12
 484              		@ sp needed
 485 007e 30BD     		pop	{r4, r5, pc}
 486              	.L33:
 487              		.align	2
 488              	.L32:
 489 0080 00000000 		.word	BMS_VOLTAGE
 490 0084 00000000 		.word	voltage
 491 0088 D34D6210 		.word	274877907
 492 008c 1F85EB51 		.word	1374389535
 493 0090 CDCCCCCC 		.word	-858993459
 494 0094 18000000 		.word	.LC2
 495 0098 00000000 		.word	.LANCHOR0
 496 009c 24000000 		.word	.LC3
 497              		.cfi_endproc
 498              	.LFE70:
 499              		.size	can_process_BMS_VOLT, .-can_process_BMS_VOLT
 500              		.section	.text.can_process_BMS_TEMP,"ax",%progbits
 501              		.align	2
 502              		.global	can_process_BMS_TEMP
 503              		.thumb
 504              		.thumb_func
 505              		.type	can_process_BMS_TEMP, %function
 506              	can_process_BMS_TEMP:
 507              	.LFB71:
 250:can_manager.c **** 
 251:can_manager.c **** //highest temp
 252:can_manager.c **** void can_process_BMS_TEMP() {
 508              		.loc 1 252 0
 509              		.cfi_startproc
 510              		@ args = 0, pretend = 0, frame = 0
 511              		@ frame_needed = 0, uses_anonymous_args = 0
 512 0000 10B5     		push	{r4, lr}
 513              		.cfi_def_cfa_offset 8
 514              		.cfi_offset 4, -8
 515              		.cfi_offset 14, -4
 253:can_manager.c **** 	uint8_t temperature = BMS_TEMP.data[7];	//displays as decimal
 516              		.loc 1 253 0
 517 0002 054B     		ldr	r3, .L36
 518 0004 9C7B     		ldrb	r4, [r3, #14]	@ zero_extendqisi2
 519              	.LVL60:
 254:can_manager.c **** 	//temperature = 0x25;
 255:can_manager.c **** 	LCD_Position(1, 13);
 520              		.loc 1 255 0
 521 0006 0D21     		movs	r1, #13
 522 0008 0120     		movs	r0, #1
 523 000a FFF7FEFF 		bl	LCD_Position
ARM GAS  C:\Users\fiona\AppData\Local\Temp\ccfBzkHG.s 			page 15


 524              	.LVL61:
 256:can_manager.c **** 	LCD_PrintHexUint8(temperature);
 525              		.loc 1 256 0
 526 000e 2046     		mov	r0, r4
 527 0010 FFF7FEFF 		bl	LCD_PrintInt8
 528              	.LVL62:
 529 0014 10BD     		pop	{r4, pc}
 530              	.LVL63:
 531              	.L37:
 532 0016 00BF     		.align	2
 533              	.L36:
 534 0018 00000000 		.word	BMS_TEMP
 535              		.cfi_endproc
 536              	.LFE71:
 537              		.size	can_process_BMS_TEMP, .-can_process_BMS_TEMP
 538              		.section	.text.can_process_SOC,"ax",%progbits
 539              		.align	2
 540              		.global	can_process_SOC
 541              		.thumb
 542              		.thumb_func
 543              		.type	can_process_SOC, %function
 544              	can_process_SOC:
 545              	.LFB72:
 257:can_manager.c **** }
 258:can_manager.c **** 
 259:can_manager.c **** void can_process_SOC() {
 546              		.loc 1 259 0
 547              		.cfi_startproc
 548              		@ args = 0, pretend = 0, frame = 0
 549              		@ frame_needed = 0, uses_anonymous_args = 0
 550              		@ link register save eliminated.
 260:can_manager.c ****     charge = SOC.data[0];
 551              		.loc 1 260 0
 552 0000 024B     		ldr	r3, .L39
 553 0002 DA79     		ldrb	r2, [r3, #7]	@ zero_extendqisi2
 554 0004 024B     		ldr	r3, .L39+4
 555 0006 1A70     		strb	r2, [r3]
 556 0008 7047     		bx	lr
 557              	.L40:
 558 000a 00BF     		.align	2
 559              	.L39:
 560 000c 00000000 		.word	SOC
 561 0010 00000000 		.word	charge
 562              		.cfi_endproc
 563              	.LFE72:
 564              		.size	can_process_SOC, .-can_process_SOC
 565              		.section	.text.can_process_current,"ax",%progbits
 566              		.align	2
 567              		.global	can_process_current
 568              		.thumb
 569              		.thumb_func
 570              		.type	can_process_current, %function
 571              	can_process_current:
 572              	.LFB73:
 261:can_manager.c ****     
 262:can_manager.c **** }
 263:can_manager.c **** 
ARM GAS  C:\Users\fiona\AppData\Local\Temp\ccfBzkHG.s 			page 16


 264:can_manager.c **** void can_process_current(){
 573              		.loc 1 264 0
 574              		.cfi_startproc
 575              		@ args = 0, pretend = 0, frame = 8
 576              		@ frame_needed = 0, uses_anonymous_args = 0
 577 0000 00B5     		push	{lr}
 578              		.cfi_def_cfa_offset 4
 579              		.cfi_offset 14, -4
 580 0002 83B0     		sub	sp, sp, #12
 581              		.cfi_def_cfa_offset 16
 265:can_manager.c ****     char8 currnt_str[6];
 266:can_manager.c ****     // dont know format until find data sheet
 267:can_manager.c ****     // data comes in bytes 2 through 5 sent as mA
 268:can_manager.c ****     uint32_t byte4 = CURR.data[2] << 24;
 582              		.loc 1 268 0
 583 0004 0F49     		ldr	r1, .L43
 584 0006 487A     		ldrb	r0, [r1, #9]	@ zero_extendqisi2
 585              	.LVL64:
 269:can_manager.c **** 	uint32_t byte3 = CURR.data[3] << 16;
 586              		.loc 1 269 0
 587 0008 8B7A     		ldrb	r3, [r1, #10]	@ zero_extendqisi2
 588 000a 1B04     		lsls	r3, r3, #16
 589              	.LVL65:
 270:can_manager.c **** 	uint32_t byte2 = CURR.data[4] << 8;
 590              		.loc 1 270 0
 591 000c CA7A     		ldrb	r2, [r1, #11]	@ zero_extendqisi2
 592              	.LVL66:
 271:can_manager.c **** 	uint32_t byte1 = CURR.data[5];
 593              		.loc 1 271 0
 594 000e 097B     		ldrb	r1, [r1, #12]	@ zero_extendqisi2
 595              	.LVL67:
 272:can_manager.c **** 	amps = (byte4 | byte3 | byte2 | byte1) / 1000;
 596              		.loc 1 272 0
 597 0010 43EA0063 		orr	r3, r3, r0, lsl #24
 598              	.LVL68:
 599 0014 43EA0222 		orr	r2, r3, r2, lsl #8
 600              	.LVL69:
 601 0018 0A43     		orrs	r2, r2, r1
 602 001a 0B4B     		ldr	r3, .L43+4
 603 001c A3FB0232 		umull	r3, r2, r3, r2
 604 0020 9209     		lsrs	r2, r2, #6
 605 0022 0A4B     		ldr	r3, .L43+8
 606 0024 1A60     		str	r2, [r3]
 273:can_manager.c ****     
 274:can_manager.c ****     sprintf(currnt_str, "%03d A", (int)amps);
 607              		.loc 1 274 0
 608 0026 0A49     		ldr	r1, .L43+12
 609              	.LVL70:
 610 0028 6846     		mov	r0, sp
 611              	.LVL71:
 612 002a FFF7FEFF 		bl	sprintf
 613              	.LVL72:
 275:can_manager.c ****     LCD_Position(0, 3);
 614              		.loc 1 275 0
 615 002e 0321     		movs	r1, #3
 616 0030 0020     		movs	r0, #0
 617 0032 FFF7FEFF 		bl	LCD_Position
ARM GAS  C:\Users\fiona\AppData\Local\Temp\ccfBzkHG.s 			page 17


 618              	.LVL73:
 276:can_manager.c **** 	LCD_PrintString(currnt_str);
 619              		.loc 1 276 0
 620 0036 6846     		mov	r0, sp
 621 0038 FFF7FEFF 		bl	LCD_PrintString
 622              	.LVL74:
 277:can_manager.c **** }
 623              		.loc 1 277 0
 624 003c 03B0     		add	sp, sp, #12
 625              		.cfi_def_cfa_offset 4
 626              		@ sp needed
 627 003e 5DF804FB 		ldr	pc, [sp], #4
 628              	.L44:
 629 0042 00BF     		.align	2
 630              	.L43:
 631 0044 00000000 		.word	CURR
 632 0048 D34D6210 		.word	274877907
 633 004c 00000000 		.word	amps
 634 0050 2C000000 		.word	.LC4
 635              		.cfi_endproc
 636              	.LFE73:
 637              		.size	can_process_current, .-can_process_current
 638              		.section	.text.can_process,"ax",%progbits
 639              		.align	2
 640              		.global	can_process
 641              		.thumb
 642              		.thumb_func
 643              		.type	can_process, %function
 644              	can_process:
 645              	.LFB66:
 102:can_manager.c **** 	int status = 0;		//returns 1 if message is updated
 646              		.loc 1 102 0
 647              		.cfi_startproc
 648              		@ args = 0, pretend = 0, frame = 0
 649              		@ frame_needed = 0, uses_anonymous_args = 0
 650              	.LVL75:
 651 0000 10B5     		push	{r4, lr}
 652              		.cfi_def_cfa_offset 8
 653              		.cfi_offset 4, -8
 654              		.cfi_offset 14, -4
 655              	.LVL76:
 104:can_manager.c **** 	case BMS_STATUS_ID:
 656              		.loc 1 104 0
 657 0002 8388     		ldrh	r3, [r0, #4]
 658 0004 40F26932 		movw	r2, #873
 659 0008 9342     		cmp	r3, r2
 660 000a 36D0     		beq	.L47
 661 000c 06D8     		bhi	.L48
 662 000e B3F5C47F 		cmp	r3, #392
 663 0012 0ED0     		beq	.L49
 664 0014 B3F5227F 		cmp	r3, #648
 665 0018 14D0     		beq	.L50
 666 001a 40E0     		b	.L54
 667              	.L48:
 668 001c B3F5916F 		cmp	r3, #1160
 669 0020 22D0     		beq	.L51
 670 0022 40F22152 		movw	r2, #1313
ARM GAS  C:\Users\fiona\AppData\Local\Temp\ccfBzkHG.s 			page 18


 671 0026 9342     		cmp	r3, r2
 672 0028 30D0     		beq	.L52
 673 002a B3F5627F 		cmp	r3, #904
 674 002e 36D1     		bne	.L54
 675 0030 11E0     		b	.L53
 676              	.L49:
 106:can_manager.c **** 		if(status)
 677              		.loc 1 106 0
 678 0032 0146     		mov	r1, r0
 679 0034 1D48     		ldr	r0, .L58
 680              	.LVL77:
 681 0036 FFF7FEFF 		bl	can_compare
 682              	.LVL78:
 107:can_manager.c ****             can_process_BMS_STATUS();
 683              		.loc 1 107 0
 684 003a 0446     		mov	r4, r0
 685 003c A0B3     		cbz	r0, .L46
 108:can_manager.c **** 		break;
 686              		.loc 1 108 0
 687 003e FFF7FEFF 		bl	can_process_BMS_STATUS
 688              	.LVL79:
 689 0042 31E0     		b	.L46
 690              	.LVL80:
 691              	.L50:
 111:can_manager.c **** 		if(status)
 692              		.loc 1 111 0
 693 0044 0146     		mov	r1, r0
 694 0046 1A48     		ldr	r0, .L58+4
 695              	.LVL81:
 696 0048 FFF7FEFF 		bl	can_compare
 697              	.LVL82:
 112:can_manager.c **** 			can_process_BMS_CURR();
 698              		.loc 1 112 0
 699 004c 0446     		mov	r4, r0
 700 004e 58B3     		cbz	r0, .L46
 113:can_manager.c **** 		break;
 701              		.loc 1 113 0
 702 0050 FFF7FEFF 		bl	can_process_BMS_CURR
 703              	.LVL83:
 704 0054 28E0     		b	.L46
 705              	.LVL84:
 706              	.L53:
 116:can_manager.c **** 		if(status)
 707              		.loc 1 116 0
 708 0056 0146     		mov	r1, r0
 709 0058 1648     		ldr	r0, .L58+8
 710              	.LVL85:
 711 005a FFF7FEFF 		bl	can_compare
 712              	.LVL86:
 117:can_manager.c **** 			can_process_BMS_VOLT();
 713              		.loc 1 117 0
 714 005e 0446     		mov	r4, r0
 715 0060 10B3     		cbz	r0, .L46
 118:can_manager.c **** 		break;
 716              		.loc 1 118 0
 717 0062 FFF7FEFF 		bl	can_process_BMS_VOLT
 718              	.LVL87:
ARM GAS  C:\Users\fiona\AppData\Local\Temp\ccfBzkHG.s 			page 19


 719 0066 1FE0     		b	.L46
 720              	.LVL88:
 721              	.L51:
 121:can_manager.c **** 		if(status)
 722              		.loc 1 121 0
 723 0068 0146     		mov	r1, r0
 724 006a 1348     		ldr	r0, .L58+12
 725              	.LVL89:
 726 006c FFF7FEFF 		bl	can_compare
 727              	.LVL90:
 122:can_manager.c **** 			can_process_BMS_TEMP();
 728              		.loc 1 122 0
 729 0070 0446     		mov	r4, r0
 730 0072 C8B1     		cbz	r0, .L46
 123:can_manager.c **** 		break;
 731              		.loc 1 123 0
 732 0074 FFF7FEFF 		bl	can_process_BMS_TEMP
 733              	.LVL91:
 734 0078 16E0     		b	.L46
 735              	.LVL92:
 736              	.L47:
 126:can_manager.c ****             can_process_SOC();
 737              		.loc 1 126 0
 738 007a 0146     		mov	r1, r0
 739 007c 0F48     		ldr	r0, .L58+16
 740              	.LVL93:
 741 007e FFF7FEFF 		bl	can_compare
 742              	.LVL94:
 743 0082 70B1     		cbz	r0, .L55
 127:can_manager.c ****         break;
 744              		.loc 1 127 0
 745 0084 FFF7FEFF 		bl	can_process_SOC
 746              	.LVL95:
 103:can_manager.c ****     switch (can_msg->id) {
 747              		.loc 1 103 0
 748 0088 0024     		movs	r4, #0
 749 008a 0DE0     		b	.L46
 750              	.LVL96:
 751              	.L52:
 130:can_manager.c ****             can_process_current();
 752              		.loc 1 130 0
 753 008c 0146     		mov	r1, r0
 754 008e 0C48     		ldr	r0, .L58+20
 755              	.LVL97:
 756 0090 FFF7FEFF 		bl	can_compare
 757              	.LVL98:
 758 0094 38B1     		cbz	r0, .L56
 131:can_manager.c ****             
 759              		.loc 1 131 0
 760 0096 FFF7FEFF 		bl	can_process_current
 761              	.LVL99:
 134:can_manager.c ****         break;
 762              		.loc 1 134 0
 763 009a 0024     		movs	r4, #0
 764 009c 04E0     		b	.L46
 765              	.LVL100:
 766              	.L54:
ARM GAS  C:\Users\fiona\AppData\Local\Temp\ccfBzkHG.s 			page 20


 767 009e 0024     		movs	r4, #0
 768 00a0 02E0     		b	.L46
 769              	.LVL101:
 770              	.L55:
 103:can_manager.c ****     switch (can_msg->id) {
 771              		.loc 1 103 0
 772 00a2 0024     		movs	r4, #0
 773 00a4 00E0     		b	.L46
 774              	.L56:
 134:can_manager.c ****         break;
 775              		.loc 1 134 0
 776 00a6 0024     		movs	r4, #0
 777              	.LVL102:
 778              	.L46:
 138:can_manager.c **** 
 779              		.loc 1 138 0
 780 00a8 2046     		mov	r0, r4
 781 00aa 10BD     		pop	{r4, pc}
 782              	.LVL103:
 783              	.L59:
 784              		.align	2
 785              	.L58:
 786 00ac 00000000 		.word	BMS_STATUS
 787 00b0 00000000 		.word	BMS_CURRENT
 788 00b4 00000000 		.word	BMS_VOLTAGE
 789 00b8 00000000 		.word	BMS_TEMP
 790 00bc 00000000 		.word	SOC
 791 00c0 00000000 		.word	CURR
 792              		.cfi_endproc
 793              	.LFE66:
 794              		.size	can_process, .-can_process
 795              		.section	.text.can_test_send,"ax",%progbits
 796              		.align	2
 797              		.global	can_test_send
 798              		.thumb
 799              		.thumb_func
 800              		.type	can_test_send, %function
 801              	can_test_send:
 802              	.LFB74:
 278:can_manager.c **** 
 279:can_manager.c **** 
 280:can_manager.c **** void can_test_send() {
 803              		.loc 1 280 0
 804              		.cfi_startproc
 805              		@ args = 0, pretend = 0, frame = 24
 806              		@ frame_needed = 0, uses_anonymous_args = 0
 807 0000 00B5     		push	{lr}
 808              		.cfi_def_cfa_offset 4
 809              		.cfi_offset 14, -4
 810 0002 87B0     		sub	sp, sp, #28
 811              		.cfi_def_cfa_offset 32
 281:can_manager.c **** 	uint8_t i;
 282:can_manager.c **** 	CAN_TX_MSG message;
 283:can_manager.c **** 	CAN_DATA_BYTES_MSG test_data;
 284:can_manager.c **** 
 285:can_manager.c **** 	message.id = 0x100;
 812              		.loc 1 285 0
ARM GAS  C:\Users\fiona\AppData\Local\Temp\ccfBzkHG.s 			page 21


 813 0004 4FF48073 		mov	r3, #256
 814 0008 0393     		str	r3, [sp, #12]
 286:can_manager.c **** 	message.rtr = 0;
 815              		.loc 1 286 0
 816 000a 0023     		movs	r3, #0
 817 000c 8DF81030 		strb	r3, [sp, #16]
 287:can_manager.c **** 	message.ide = 0;
 818              		.loc 1 287 0
 819 0010 8DF81130 		strb	r3, [sp, #17]
 288:can_manager.c **** 	message.dlc = 0x08;
 820              		.loc 1 288 0
 821 0014 0822     		movs	r2, #8
 822 0016 8DF81220 		strb	r2, [sp, #18]
 289:can_manager.c **** 	message.irq = 1;
 823              		.loc 1 289 0
 824 001a 0122     		movs	r2, #1
 825 001c 8DF81320 		strb	r2, [sp, #19]
 290:can_manager.c **** 	message.msg = &test_data;
 826              		.loc 1 290 0
 827 0020 01AA     		add	r2, sp, #4
 828 0022 0592     		str	r2, [sp, #20]
 829              	.LVL104:
 291:can_manager.c **** 
 292:can_manager.c **** 	for(i=0;i<8;i++)
 830              		.loc 1 292 0
 831 0024 06E0     		b	.L61
 832              	.LVL105:
 833              	.L62:
 293:can_manager.c **** 		test_data.byte[i] = 2;
 834              		.loc 1 293 0 discriminator 3
 835 0026 06AA     		add	r2, sp, #24
 836 0028 1A44     		add	r2, r2, r3
 837 002a 0221     		movs	r1, #2
 838 002c 02F8141C 		strb	r1, [r2, #-20]
 292:can_manager.c **** 		test_data.byte[i] = 2;
 839              		.loc 1 292 0 discriminator 3
 840 0030 0133     		adds	r3, r3, #1
 841              	.LVL106:
 842 0032 DBB2     		uxtb	r3, r3
 843              	.LVL107:
 844              	.L61:
 292:can_manager.c **** 		test_data.byte[i] = 2;
 845              		.loc 1 292 0 is_stmt 0 discriminator 1
 846 0034 072B     		cmp	r3, #7
 847 0036 F6D9     		bls	.L62
 294:can_manager.c **** 
 295:can_manager.c **** 	CAN_SendMsg(&message);
 848              		.loc 1 295 0 is_stmt 1
 849 0038 03A8     		add	r0, sp, #12
 850 003a FFF7FEFF 		bl	CAN_SendMsg
 851              	.LVL108:
 296:can_manager.c **** } // can_test_send()
 852              		.loc 1 296 0
 853 003e 07B0     		add	sp, sp, #28
 854              		.cfi_def_cfa_offset 4
 855              		@ sp needed
 856 0040 5DF804FB 		ldr	pc, [sp], #4
ARM GAS  C:\Users\fiona\AppData\Local\Temp\ccfBzkHG.s 			page 22


 857              		.cfi_endproc
 858              	.LFE74:
 859              		.size	can_test_send, .-can_test_send
 860              		.section	.text.can_test_receive,"ax",%progbits
 861              		.align	2
 862              		.global	can_test_receive
 863              		.thumb
 864              		.thumb_func
 865              		.type	can_test_receive, %function
 866              	can_test_receive:
 867              	.LFB75:
 297:can_manager.c **** 
 298:can_manager.c **** 
 299:can_manager.c **** void can_test_receive() {
 868              		.loc 1 299 0
 869              		.cfi_startproc
 870              		@ args = 0, pretend = 0, frame = 0
 871              		@ frame_needed = 0, uses_anonymous_args = 0
 872              		@ link register save eliminated.
 873              	.LVL109:
 300:can_manager.c **** 	DataPacket test_msg;
 301:can_manager.c ****     uint8 i;
 302:can_manager.c **** 	
 303:can_manager.c ****     //test packets
 304:can_manager.c ****     for(i=100; i<115; i++) { 
 874              		.loc 1 304 0
 875 0000 6423     		movs	r3, #100
 876 0002 01E0     		b	.L65
 877              	.LVL110:
 878              	.L66:
 879              		.loc 1 304 0 is_stmt 0 discriminator 3
 880 0004 0133     		adds	r3, r3, #1
 881              	.LVL111:
 882 0006 DBB2     		uxtb	r3, r3
 883              	.LVL112:
 884              	.L65:
 885              		.loc 1 304 0 discriminator 1
 886 0008 722B     		cmp	r3, #114
 887 000a FBD9     		bls	.L66
 305:can_manager.c **** 		//test_msg.millicounter = millis_timer_ReadCounter();    
 306:can_manager.c **** 		test_msg.id = 0x0923;
 307:can_manager.c **** 		test_msg.length = 8;
 308:can_manager.c **** 		test_msg.data[0]= 1;
 309:can_manager.c **** 		test_msg.data[1]= 2;
 310:can_manager.c **** 		test_msg.data[2]= 3;
 311:can_manager.c **** 		test_msg.data[3]= 4;
 312:can_manager.c **** 		test_msg.data[4]= 5;
 313:can_manager.c **** 		test_msg.data[5]= 6;
 314:can_manager.c **** 		test_msg.data[6]= 7;
 315:can_manager.c ****         test_msg.data[7]= 8;
 316:can_manager.c **** 		
 317:can_manager.c **** 		//msg_recieve(&test_msg);
 318:can_manager.c ****     } //for
 319:can_manager.c **** }
 888              		.loc 1 319 0 is_stmt 1
 889 000c 7047     		bx	lr
 890              		.cfi_endproc
ARM GAS  C:\Users\fiona\AppData\Local\Temp\ccfBzkHG.s 			page 23


 891              	.LFE75:
 892              		.size	can_test_receive, .-can_test_receive
 893              		.global	SOC_LUT
 894              		.comm	CURR,16,4
 895              		.comm	SOC,16,4
 896              		.comm	BMS_TEMP,16,4
 897              		.comm	BMS_VOLTAGE,16,4
 898              		.comm	BMS_CURRENT,16,4
 899              		.comm	BMS_STATUS,16,4
 900 000e 00BF     		.data
 901              		.align	2
 902              		.set	.LANCHOR0,. + 0
 903              		.type	SOC_LUT, %object
 904              		.size	SOC_LUT, 960
 905              	SOC_LUT:
 906 0000 00000000 		.word	0
 907 0004 05000000 		.word	5
 908 0008 0D000000 		.word	13
 909 000c 16000000 		.word	22
 910 0010 1F000000 		.word	31
 911 0014 27000000 		.word	39
 912 0018 30000000 		.word	48
 913 001c 39000000 		.word	57
 914 0020 43000000 		.word	67
 915 0024 4C000000 		.word	76
 916 0028 56000000 		.word	86
 917 002c 5A000000 		.word	90
 918 0030 6A000000 		.word	106
 919 0034 75000000 		.word	117
 920 0038 7F000000 		.word	127
 921 003c 8A000000 		.word	138
 922 0040 96000000 		.word	150
 923 0044 A2000000 		.word	162
 924 0048 AE000000 		.word	174
 925 004c BA000000 		.word	186
 926 0050 C7000000 		.word	199
 927 0054 D4000000 		.word	212
 928 0058 E2000000 		.word	226
 929 005c F1000000 		.word	241
 930 0060 00010000 		.word	256
 931 0064 0F010000 		.word	271
 932 0068 20010000 		.word	288
 933 006c CD000000 		.word	205
 934 0070 44010000 		.word	324
 935 0074 59010000 		.word	345
 936 0078 6C010000 		.word	364
 937 007c 82010000 		.word	386
 938 0080 9A010000 		.word	410
 939 0084 B4010000 		.word	436
 940 0088 D1010000 		.word	465
 941 008c F1010000 		.word	497
 942 0090 16020000 		.word	534
 943 0094 41020000 		.word	577
 944 0098 75020000 		.word	629
 945 009c B7020000 		.word	695
 946 00a0 0C030000 		.word	780
 947 00a4 71030000 		.word	881
ARM GAS  C:\Users\fiona\AppData\Local\Temp\ccfBzkHG.s 			page 24


 948 00a8 CC030000 		.word	972
 949 00ac 14040000 		.word	1044
 950 00b0 4F040000 		.word	1103
 951 00b4 85040000 		.word	1157
 952 00b8 B6040000 		.word	1206
 953 00bc E5040000 		.word	1253
 954 00c0 13050000 		.word	1299
 955 00c4 40050000 		.word	1344
 956 00c8 6D050000 		.word	1389
 957 00cc 9A050000 		.word	1434
 958 00d0 C7050000 		.word	1479
 959 00d4 F7050000 		.word	1527
 960 00d8 28060000 		.word	1576
 961 00dc 5C060000 		.word	1628
 962 00e0 92060000 		.word	1682
 963 00e4 CA060000 		.word	1738
 964 00e8 06070000 		.word	1798
 965 00ec 43070000 		.word	1859
 966 00f0 84070000 		.word	1924
 967 00f4 C8070000 		.word	1992
 968 00f8 0E080000 		.word	2062
 969 00fc 56080000 		.word	2134
 970 0100 A0080000 		.word	2208
 971 0104 E9080000 		.word	2281
 972 0108 78090000 		.word	2424
 973 010c BC090000 		.word	2492
 974 0110 FD090000 		.word	2557
 975 0114 3C0A0000 		.word	2620
 976 0118 790A0000 		.word	2681
 977 011c B70A0000 		.word	2743
 978 0120 F40A0000 		.word	2804
 979 0124 340B0000 		.word	2868
 980 0128 570B0000 		.word	2903
 981 012c BB0B0000 		.word	3003
 982 0130 060C0000 		.word	3078
 983 0134 590C0000 		.word	3161
 984 0138 B50C0000 		.word	3253
 985 013c 1A0D0000 		.word	3354
 986 0140 8B0D0000 		.word	3467
 987 0144 050E0000 		.word	3589
 988 0148 880E0000 		.word	3720
 989 014c 0B0F0000 		.word	3851
 990 0150 880F0000 		.word	3976
 991 0154 FC0F0000 		.word	4092
 992 0158 68100000 		.word	4200
 993 015c CF100000 		.word	4303
 994 0160 34110000 		.word	4404
 995 0164 98110000 		.word	4504
 996 0168 FB110000 		.word	4603
 997 016c 5C120000 		.word	4700
 998 0170 B8120000 		.word	4792
 999 0174 0E130000 		.word	4878
 1000 0178 5E130000 		.word	4958
 1001 017c A8130000 		.word	5032
 1002 0180 ED130000 		.word	5101
 1003 0184 2E140000 		.word	5166
 1004 0188 6C140000 		.word	5228
ARM GAS  C:\Users\fiona\AppData\Local\Temp\ccfBzkHG.s 			page 25


 1005 018c A9140000 		.word	5289
 1006 0190 E3140000 		.word	5347
 1007 0194 1D150000 		.word	5405
 1008 0198 56150000 		.word	5462
 1009 019c 8E150000 		.word	5518
 1010 01a0 C5150000 		.word	5573
 1011 01a4 FC150000 		.word	5628
 1012 01a8 30160000 		.word	5680
 1013 01ac 63160000 		.word	5731
 1014 01b0 94160000 		.word	5780
 1015 01b4 C2160000 		.word	5826
 1016 01b8 ED160000 		.word	5869
 1017 01bc 17170000 		.word	5911
 1018 01c0 3F170000 		.word	5951
 1019 01c4 64170000 		.word	5988
 1020 01c8 88170000 		.word	6024
 1021 01cc AB170000 		.word	6059
 1022 01d0 CC170000 		.word	6092
 1023 01d4 EC170000 		.word	6124
 1024 01d8 0C180000 		.word	6156
 1025 01dc 2B180000 		.word	6187
 1026 01e0 49180000 		.word	6217
 1027 01e4 67180000 		.word	6247
 1028 01e8 86180000 		.word	6278
 1029 01ec A4180000 		.word	6308
 1030 01f0 C1180000 		.word	6337
 1031 01f4 E0180000 		.word	6368
 1032 01f8 FE180000 		.word	6398
 1033 01fc 1C190000 		.word	6428
 1034 0200 3B190000 		.word	6459
 1035 0204 5B190000 		.word	6491
 1036 0208 7B190000 		.word	6523
 1037 020c 9C190000 		.word	6556
 1038 0210 BE190000 		.word	6590
 1039 0214 E1190000 		.word	6625
 1040 0218 041A0000 		.word	6660
 1041 021c 281A0000 		.word	6696
 1042 0220 4D1A0000 		.word	6733
 1043 0224 721A0000 		.word	6770
 1044 0228 981A0000 		.word	6808
 1045 022c BE1A0000 		.word	6846
 1046 0230 E41A0000 		.word	6884
 1047 0234 0B1B0000 		.word	6923
 1048 0238 311B0000 		.word	6961
 1049 023c 581B0000 		.word	7000
 1050 0240 7F1B0000 		.word	7039
 1051 0244 A51B0000 		.word	7077
 1052 0248 CB1B0000 		.word	7115
 1053 024c F11B0000 		.word	7153
 1054 0250 171C0000 		.word	7191
 1055 0254 3C1C0000 		.word	7228
 1056 0258 621C0000 		.word	7266
 1057 025c 871C0000 		.word	7303
 1058 0260 AC1C0000 		.word	7340
 1059 0264 D01C0000 		.word	7376
 1060 0268 F51C0000 		.word	7413
 1061 026c 191D0000 		.word	7449
ARM GAS  C:\Users\fiona\AppData\Local\Temp\ccfBzkHG.s 			page 26


 1062 0270 3C1D0000 		.word	7484
 1063 0274 601D0000 		.word	7520
 1064 0278 831D0000 		.word	7555
 1065 027c A61D0000 		.word	7590
 1066 0280 C91D0000 		.word	7625
 1067 0284 EB1D0000 		.word	7659
 1068 0288 0E1E0000 		.word	7694
 1069 028c 301E0000 		.word	7728
 1070 0290 521E0000 		.word	7762
 1071 0294 741E0000 		.word	7796
 1072 0298 961E0000 		.word	7830
 1073 029c B81E0000 		.word	7864
 1074 02a0 DA1E0000 		.word	7898
 1075 02a4 FC1E0000 		.word	7932
 1076 02a8 1E1F0000 		.word	7966
 1077 02ac 401F0000 		.word	8000
 1078 02b0 621F0000 		.word	8034
 1079 02b4 841F0000 		.word	8068
 1080 02b8 A61F0000 		.word	8102
 1081 02bc C81F0000 		.word	8136
 1082 02c0 EA1F0000 		.word	8170
 1083 02c4 0C200000 		.word	8204
 1084 02c8 2E200000 		.word	8238
 1085 02cc 50200000 		.word	8272
 1086 02d0 72200000 		.word	8306
 1087 02d4 94200000 		.word	8340
 1088 02d8 B5200000 		.word	8373
 1089 02dc D6200000 		.word	8406
 1090 02e0 F8200000 		.word	8440
 1091 02e4 18210000 		.word	8472
 1092 02e8 39210000 		.word	8505
 1093 02ec 5A210000 		.word	8538
 1094 02f0 7A210000 		.word	8570
 1095 02f4 9A210000 		.word	8602
 1096 02f8 B8210000 		.word	8632
 1097 02fc DA210000 		.word	8666
 1098 0300 F9210000 		.word	8697
 1099 0304 19220000 		.word	8729
 1100 0308 38220000 		.word	8760
 1101 030c 57220000 		.word	8791
 1102 0310 76220000 		.word	8822
 1103 0314 95220000 		.word	8853
 1104 0318 B4220000 		.word	8884
 1105 031c D3220000 		.word	8915
 1106 0320 F1220000 		.word	8945
 1107 0324 10230000 		.word	8976
 1108 0328 2E230000 		.word	9006
 1109 032c 4C230000 		.word	9036
 1110 0330 6B230000 		.word	9067
 1111 0334 89230000 		.word	9097
 1112 0338 A7230000 		.word	9127
 1113 033c C5230000 		.word	9157
 1114 0340 E2230000 		.word	9186
 1115 0344 00240000 		.word	9216
 1116 0348 1D240000 		.word	9245
 1117 034c 3B240000 		.word	9275
 1118 0350 58240000 		.word	9304
ARM GAS  C:\Users\fiona\AppData\Local\Temp\ccfBzkHG.s 			page 27


 1119 0354 75240000 		.word	9333
 1120 0358 92240000 		.word	9362
 1121 035c AE240000 		.word	9390
 1122 0360 CB240000 		.word	9419
 1123 0364 E7240000 		.word	9447
 1124 0368 03250000 		.word	9475
 1125 036c 1F250000 		.word	9503
 1126 0370 3B250000 		.word	9531
 1127 0374 57250000 		.word	9559
 1128 0378 72250000 		.word	9586
 1129 037c 8D250000 		.word	9613
 1130 0380 A8250000 		.word	9640
 1131 0384 AF250000 		.word	9647
 1132 0388 DD250000 		.word	9693
 1133 038c F8250000 		.word	9720
 1134 0390 12260000 		.word	9746
 1135 0394 2C260000 		.word	9772
 1136 0398 45260000 		.word	9797
 1137 039c 5F260000 		.word	9823
 1138 03a0 78260000 		.word	9848
 1139 03a4 91260000 		.word	9873
 1140 03a8 AA260000 		.word	9898
 1141 03ac C3260000 		.word	9923
 1142 03b0 DB260000 		.word	9947
 1143 03b4 F3260000 		.word	9971
 1144 03b8 0B270000 		.word	9995
 1145 03bc A0860100 		.word	100000
 1146              		.section	.rodata.str1.4,"aMS",%progbits,1
 1147              		.align	2
 1148              	.LC0:
 1149 0000 25303258 		.ascii	"%02X%02X\000"
 1149      25303258 
 1149      00
 1150 0009 000000   		.space	3
 1151              	.LC1:
 1152 000c 25303364 		.ascii	"%03d.%01dA\000"
 1152      2E253031 
 1152      644100
 1153 0017 00       		.space	1
 1154              	.LC2:
 1155 0018 25303364 		.ascii	"%03d.%01dV\000"
 1155      2E253031 
 1155      645600
 1156 0023 00       		.space	1
 1157              	.LC3:
 1158 0024 25303264 		.ascii	"%02d\000"
 1158      00
 1159 0029 000000   		.space	3
 1160              	.LC4:
 1161 002c 25303364 		.ascii	"%03d A\000"
 1161      204100
 1162              		.text
 1163              	.Letext0:
 1164              		.file 2 "c:\\program files (x86)\\cypress\\psoc creator\\4.2\\psoc creator\\import\\gnu\\arm\\5.4.
 1165              		.file 3 "c:\\program files (x86)\\cypress\\psoc creator\\4.2\\psoc creator\\import\\gnu\\arm\\5.4.
 1166              		.file 4 "Generated_Source\\PSoC5/cytypes.h"
 1167              		.file 5 "Generated_Source\\PSoC5/CAN.h"
ARM GAS  C:\Users\fiona\AppData\Local\Temp\ccfBzkHG.s 			page 28


 1168              		.file 6 "data.h"
 1169              		.file 7 "Generated_Source\\PSoC5/core_cm3.h"
 1170              		.file 8 "c:\\program files (x86)\\cypress\\psoc creator\\4.2\\psoc creator\\import\\gnu\\arm\\5.4.
 1171              		.file 9 "Generated_Source\\PSoC5/LCD.h"