ARM GAS  C:\Users\fiona\AppData\Local\Temp\ccVIaRgi.s 			page 1


   1              		.syntax unified
   2              		.cpu cortex-m3
   3              		.fpu softvfp
   4              		.eabi_attribute 20, 1
   5              		.eabi_attribute 21, 1
   6              		.eabi_attribute 23, 3
   7              		.eabi_attribute 24, 1
   8              		.eabi_attribute 25, 1
   9              		.eabi_attribute 26, 1
  10              		.eabi_attribute 30, 1
  11              		.eabi_attribute 34, 1
  12              		.eabi_attribute 18, 4
  13              		.thumb
  14              		.syntax unified
  15              		.file	"main.c"
  16              		.text
  17              	.Ltext0:
  18              		.cfi_sections	.debug_frame
  19              		.section	.text.main,"ax",%progbits
  20              		.align	2
  21              		.global	main
  22              		.thumb
  23              		.thumb_func
  24              		.type	main, %function
  25              	main:
  26              	.LFB63:
  27              		.file 1 "main.c"
   1:main.c        **** /* Node-Rhinoceros
   2:main.c        **** 	 Charger board FRUCD
   3:main.c        **** 	Simply prints BMS statuses to LCD
   4:main.c        ****  */
   5:main.c        **** 
   6:main.c        **** #include <project.h>
   7:main.c        **** #include "data.h"
   8:main.c        **** #include "can_manager.h"
   9:main.c        **** #include "lcd_manager.h"
  10:main.c        **** 
  11:main.c        **** // declared external in can_manager.c
  12:main.c        **** volatile uint32_t voltage = 0;
  13:main.c        **** volatile uint8_t charge = 0;
  14:main.c        **** volatile uint32_t amps = 0;
  15:main.c        **** 
  16:main.c        **** int main(void) {
  28              		.loc 1 16 0
  29              		.cfi_startproc
  30              		@ args = 0, pretend = 0, frame = 0
  31              		@ frame_needed = 0, uses_anonymous_args = 0
  32 0000 10B5     		push	{r4, lr}
  33              		.cfi_def_cfa_offset 8
  34              		.cfi_offset 4, -8
  35              		.cfi_offset 14, -4
  17:main.c        **** 	CYGlobalIntEnable;      //Uncomment this line to enable global interrupts 
  36              		.loc 1 17 0
  37              		.syntax unified
  38              	@ 17 "main.c" 1
  39 0002 62B6     		CPSIE   i
  40              	@ 0 "" 2
ARM GAS  C:\Users\fiona\AppData\Local\Temp\ccVIaRgi.s 			page 2


  18:main.c        **** 
  19:main.c        **** 	uint8_t atomic_state = CyEnterCriticalSection(); // BEGIN ATOMIC
  41              		.loc 1 19 0
  42              		.thumb
  43              		.syntax unified
  44 0004 FFF7FEFF 		bl	CyEnterCriticalSection
  45              	.LVL0:
  46 0008 0446     		mov	r4, r0
  47              	.LVL1:
  20:main.c        **** 	can_init();
  48              		.loc 1 20 0
  49 000a FFF7FEFF 		bl	can_init
  50              	.LVL2:
  21:main.c        **** 	lcd_init();
  51              		.loc 1 21 0
  52 000e FFF7FEFF 		bl	lcd_init
  53              	.LVL3:
  22:main.c        ****     lcd_print_bms();
  54              		.loc 1 22 0
  55 0012 FFF7FEFF 		bl	lcd_print_bms
  56              	.LVL4:
  23:main.c        **** 	CyDelay(10);				//give some time to finish setup
  57              		.loc 1 23 0
  58 0016 0A20     		movs	r0, #10
  59 0018 FFF7FEFF 		bl	CyDelay
  60              	.LVL5:
  24:main.c        **** 	CyExitCriticalSection(atomic_state);               // END ATOMIC
  61              		.loc 1 24 0
  62 001c 2046     		mov	r0, r4
  63 001e FFF7FEFF 		bl	CyExitCriticalSection
  64              	.LVL6:
  65              	.L2:
  66 0022 FEE7     		b	.L2
  67              		.cfi_endproc
  68              	.LFE63:
  69              		.size	main, .-main
  70              		.section	.text.msg_recieve,"ax",%progbits
  71              		.align	2
  72              		.global	msg_recieve
  73              		.thumb
  74              		.thumb_func
  75              		.type	msg_recieve, %function
  76              	msg_recieve:
  77              	.LFB64:
  25:main.c        **** 	
  26:main.c        **** 	for(;;)	{
  27:main.c        ****         
  28:main.c        ****                     
  29:main.c        **** 	} // main loop
  30:main.c        **** 
  31:main.c        **** 	return 0;
  32:main.c        **** } // main()
  33:main.c        **** 
  34:main.c        **** void msg_recieve(DataPacket * msg) {
  78              		.loc 1 34 0
  79              		.cfi_startproc
  80              		@ args = 0, pretend = 0, frame = 0
ARM GAS  C:\Users\fiona\AppData\Local\Temp\ccVIaRgi.s 			page 3


  81              		@ frame_needed = 0, uses_anonymous_args = 0
  82              	.LVL7:
  83 0000 08B5     		push	{r3, lr}
  84              		.cfi_def_cfa_offset 8
  85              		.cfi_offset 3, -8
  86              		.cfi_offset 14, -4
  35:main.c        **** 	can_process(msg);
  87              		.loc 1 35 0
  88 0002 FFF7FEFF 		bl	can_process
  89              	.LVL8:
  90 0006 08BD     		pop	{r3, pc}
  91              		.cfi_endproc
  92              	.LFE64:
  93              		.size	msg_recieve, .-msg_recieve
  94              		.global	amps
  95              		.global	charge
  96              		.global	voltage
  97              		.bss
  98              		.align	2
  99              		.type	amps, %object
 100              		.size	amps, 4
 101              	amps:
 102 0000 00000000 		.space	4
 103              		.type	charge, %object
 104              		.size	charge, 1
 105              	charge:
 106 0004 00       		.space	1
 107 0005 000000   		.space	3
 108              		.type	voltage, %object
 109              		.size	voltage, 4
 110              	voltage:
 111 0008 00000000 		.space	4
 112              		.text
 113              	.Letext0:
 114              		.file 2 "c:\\program files (x86)\\cypress\\psoc creator\\4.2\\psoc creator\\import\\gnu\\arm\\5.4.
 115              		.file 3 "c:\\program files (x86)\\cypress\\psoc creator\\4.2\\psoc creator\\import\\gnu\\arm\\5.4.
 116              		.file 4 "data.h"
 117              		.file 5 "Generated_Source\\PSoC5/core_cm3.h"
 118              		.file 6 "Generated_Source\\PSoC5/CyLib.h"
 119              		.file 7 "can_manager.h"
 120              		.file 8 "lcd_manager.h"